target datalayout = "e-m:e-p270:32:32-p271:32:32-p272:64:64-i64:64-i128:128-f80:128-n8:16:32:64-S128"
target triple = "x86_64-pc-linux-gnu"

%class.Register = type { i32 }
%class.Label = type <{ i32, [4 x i32], i32, ptr, i8, [7 x i8] }>

@.str = private unnamed_addr constant [42 x i8] c"src/hotspot/cpu/x86/templateTable_x86.cpp\00", align 1
@_ZN13TemplateTable5_masmE = external global ptr, align 8
@_ZL3rax = internal constant %class.Register zeroinitializer, align 4
@g_assert_poison = external global ptr, align 8
@_ZL3rdx = internal constant %class.Register { i32 2 }, align 4
@PrintInterpreter = external global i8, align 1

; Function Attrs: mustprogress nounwind uwtable
define linkonce_odr hidden void @_ZN5Label4initEv(ptr noundef nonnull align 8 dereferenceable(33) %0) #1 comdat align 2 {
  %2 = alloca ptr, align 8
  store ptr %0, ptr %2, align 8
  %3 = load ptr, ptr %2, align 8
  %4 = getelementptr inbounds %class.Label, ptr %3, i32 0, i32 0
  store i32 -1, ptr %4, align 8
  %5 = getelementptr inbounds %class.Label, ptr %3, i32 0, i32 2
  store i32 0, ptr %5, align 4
  %6 = getelementptr inbounds %class.Label, ptr %3, i32 0, i32 3
  store ptr null, ptr %6, align 8
  %7 = getelementptr inbounds %class.Label, ptr %3, i32 0, i32 4
  store i8 0, ptr %7, align 8
  ret void
}

; Function Attrs: mustprogress nounwind uwtable
define linkonce_odr hidden void @_ZN5LabelD2Ev(ptr noundef nonnull align 8 dereferenceable(33) %0) unnamed_addr #1 comdat align 2 {
  %2 = alloca ptr, align 8
  store ptr %0, ptr %2, align 8
  ret void
}

; Function Attrs: mustprogress nounwind uwtable
define internal noundef i32 @_ZL5j_notN13TemplateTable9ConditionE(i32 noundef %0) #1 {
  %2 = alloca i32, align 4
  %3 = alloca i32, align 4
  store i32 %0, ptr %3, align 4
  %4 = load i32, ptr %3, align 4
  switch i32 %4, label %11 [
    i32 0, label %5
    i32 1, label %6
    i32 2, label %7
    i32 3, label %8
    i32 4, label %9
    i32 5, label %10
  ]

5:                                                ; preds = %1
  store i32 5, ptr %2, align 4
  br label %15

6:                                                ; preds = %1
  store i32 4, ptr %2, align 4
  br label %15

7:                                                ; preds = %1
  store i32 13, ptr %2, align 4
  br label %15

8:                                                ; preds = %1
  store i32 15, ptr %2, align 4
  br label %15

9:                                                ; preds = %1
  store i32 14, ptr %2, align 4
  br label %15

10:                                               ; preds = %1
  store i32 12, ptr %2, align 4
  br label %15

11:                                               ; preds = %1
  br label %12

12:                                               ; preds = %11
  %13 = load ptr, ptr @g_assert_poison, align 8
  store i8 88, ptr %13, align 1
  call void @_Z28report_should_not_reach_herePKci(ptr noundef @.str, i32 noundef 144) #6
  unreachable

14:                                               ; No predecessors!
  store i32 4, ptr %2, align 4
  br label %15

15:                                               ; preds = %14, %10, %9, %8, %7, %6, %5
  %16 = load i32, ptr %2, align 4
  ret i32 %16
}

; Function Attrs: mustprogress nounwind uwtable
define linkonce_odr hidden noundef ptr @_ZN12Disassembler4hookI25InterpreterMacroAssemblerEEPT_PKciS3_(ptr noundef %0, i32 noundef %1, ptr noundef %2) #1 comdat align 2 {
  %4 = alloca ptr, align 8
  %5 = alloca i32, align 4
  %6 = alloca ptr, align 8
  store ptr %0, ptr %4, align 8
  store i32 %1, ptr %5, align 4
  store ptr %2, ptr %6, align 8
  %7 = load i8, ptr @PrintInterpreter, align 1
  %8 = trunc i8 %7 to i1
  br i1 %8, label %9, label %13

9:                                                ; preds = %3
  %10 = load ptr, ptr %4, align 8
  %11 = load i32, ptr %5, align 4
  %12 = load ptr, ptr %6, align 8
  call void @_ZN12Disassembler5_hookEPKciP14MacroAssembler(ptr noundef %10, i32 noundef %11, ptr noundef %12)
  br label %13

13:                                               ; preds = %9, %3
  %14 = load ptr, ptr %6, align 8
  ret ptr %14
}

; Function Attrs: mustprogress nounwind uwtable
define linkonce_odr hidden void @_ZN5LabelC2Ev(ptr noundef nonnull align 8 dereferenceable(33) %0) unnamed_addr #1 comdat align 2 {
  %2 = alloca ptr, align 8
  store ptr %0, ptr %2, align 8
  %3 = load ptr, ptr %2, align 8
  call void @_ZN5Label4initEv(ptr noundef nonnull align 8 dereferenceable(33) %3)
  ret void
}

; Function Attrs: mustprogress nounwind uwtable
define hidden void @_ZN13TemplateTable7if_acmpENS_9ConditionE(i32 noundef %0) #1 align 2 {
  %2 = alloca i32, align 4
  %3 = alloca %class.Label, align 8
  %4 = alloca %class.Register, align 4
  %5 = alloca %class.Register, align 4
  %6 = alloca %class.Register, align 4
  %7 = alloca %class.Register, align 4
  store i32 %0, ptr %2, align 4
  call void @_ZN13TemplateTable10transitionE8TosStateS0_(i32 noundef 8, i32 noundef 9)
  call void @_ZN5LabelC2Ev(ptr noundef nonnull align 8 dereferenceable(33) %3)
  %8 = load ptr, ptr @_ZN13TemplateTable5_masmE, align 8
  %9 = call noundef ptr @_ZN12Disassembler4hookI25InterpreterMacroAssemblerEEPT_PKciS3_(ptr noundef @.str, i32 noundef 2343, ptr noundef %8)
  call void @llvm.memcpy.p0.p0.i64(ptr align 4 %4, ptr align 4 @_ZL3rdx, i64 4, i1 false)
  %10 = getelementptr inbounds %class.Register, ptr %4, i32 0, i32 0
  %11 = load i32, ptr %10, align 4
  call void @_ZN25InterpreterMacroAssembler7pop_ptrE8Register(ptr noundef nonnull align 8 dereferenceable(48) %9, i32 %11)
  %12 = load ptr, ptr @_ZN13TemplateTable5_masmE, align 8
  %13 = call noundef ptr @_ZN12Disassembler4hookI25InterpreterMacroAssemblerEEPT_PKciS3_(ptr noundef @.str, i32 noundef 2344, ptr noundef %12)
  call void @llvm.memcpy.p0.p0.i64(ptr align 4 %5, ptr align 4 @_ZL3rdx, i64 4, i1 false)
  call void @llvm.memcpy.p0.p0.i64(ptr align 4 %6, ptr align 4 @_ZL3rax, i64 4, i1 false)
  %14 = getelementptr inbounds %class.Register, ptr %5, i32 0, i32 0
  %15 = load i32, ptr %14, align 4
  %16 = getelementptr inbounds %class.Register, ptr %6, i32 0, i32 0
  %17 = load i32, ptr %16, align 4
  call void @_ZN14MacroAssembler6cmpoopE8RegisterS0_(ptr noundef nonnull align 8 dereferenceable(40) %13, i32 %15, i32 %17)
  %18 = load ptr, ptr @_ZN13TemplateTable5_masmE, align 8
  %19 = call noundef ptr @_ZN12Disassembler4hookI25InterpreterMacroAssemblerEEPT_PKciS3_(ptr noundef @.str, i32 noundef 2345, ptr noundef %18)
  %20 = load i32, ptr %2, align 4
  %21 = call noundef i32 @_ZL5j_notN13TemplateTable9ConditionE(i32 noundef %20)
  call void @_ZN9Assembler3jccENS_9ConditionER5Labelb(ptr noundef nonnull align 8 dereferenceable(40) %19, i32 noundef %21, ptr noundef nonnull align 8 dereferenceable(33) %3, i1 noundef zeroext true)
  call void @_ZN13TemplateTable6branchEbb(i1 noundef zeroext false, i1 noundef zeroext false)
  %22 = load ptr, ptr @_ZN13TemplateTable5_masmE, align 8
  %23 = call noundef ptr @_ZN12Disassembler4hookI25InterpreterMacroAssemblerEEPT_PKciS3_(ptr noundef @.str, i32 noundef 2347, ptr noundef %22)
  call void @_ZN17AbstractAssembler4bindER5Label(ptr noundef nonnull align 8 dereferenceable(24) %23, ptr noundef nonnull align 8 dereferenceable(33) %3)
  %24 = load ptr, ptr @_ZN13TemplateTable5_masmE, align 8
  %25 = call noundef ptr @_ZN12Disassembler4hookI25InterpreterMacroAssemblerEEPT_PKciS3_(ptr noundef @.str, i32 noundef 2348, ptr noundef %24)
  call void @llvm.memcpy.p0.p0.i64(ptr align 4 %7, ptr align 4 @_ZL3rax, i64 4, i1 false)
  %26 = getelementptr inbounds %class.Register, ptr %7, i32 0, i32 0
  %27 = load i32, ptr %26, align 4
  call void @_ZN25InterpreterMacroAssembler24profile_not_taken_branchE8Register(ptr noundef nonnull align 8 dereferenceable(48) %25, i32 %27)
  call void @_ZN5LabelD2Ev(ptr noundef nonnull align 8 dereferenceable(33) %3) #5
  ret void
}