; Function Attrs: mustprogress nounwind uwtable
define hidden void @_ZN13TemplateTable7if_acmpENS_9ConditionE(i32 noundef %0) local_unnamed_addr #0 align 2 {
  %2 = alloca %class.Label, align 8
  tail call void @_ZN13TemplateTable10transitionE8TosStateS0_(i32 noundef 8, i32 noundef 9) #8
  store i32 -1, ptr %2, align 8
  %3 = getelementptr inbounds i8, ptr %2, i64 20
  store i32 0, ptr %3, align 4
  %4 = getelementptr inbounds i8, ptr %2, i64 24
  store ptr null, ptr %4, align 8
  %5 = getelementptr inbounds i8, ptr %2, i64 32
  store i8 0, ptr %5, align 8
  %6 = load ptr, ptr @_ZN13TemplateTable5_masmE, align 8
  %7 = load i8, ptr @PrintInterpreter, align 1
  %8 = trunc i8 %7 to i1
  br i1 %8, label %9, label %_ZN12Disassembler4hookI25InterpreterMacroAssemblerEEPT_PKciS3_.exit

9:                                                ; preds = %1
  tail call void @_ZN12Disassembler5_hookEPKciP14MacroAssembler(ptr noundef nonnull @.str, i32 noundef 2343, ptr noundef %6) #8
  br label %_ZN12Disassembler4hookI25InterpreterMacroAssemblerEEPT_PKciS3_.exit

_ZN12Disassembler4hookI25InterpreterMacroAssemblerEEPT_PKciS3_.exit: ; preds = %1, %9
  tail call void @_ZN25InterpreterMacroAssembler7pop_ptrE8Register(ptr noundef nonnull align 8 dereferenceable(48) %6, i32 2) #8
  %10 = load ptr, ptr @_ZN13TemplateTable5_masmE, align 8
  %11 = load i8, ptr @PrintInterpreter, align 1
  %12 = trunc i8 %11 to i1
  br i1 %12, label %13, label %_ZN12Disassembler4hookI25InterpreterMacroAssemblerEEPT_PKciS3_.exit4

13:                                               ; preds = %_ZN12Disassembler4hookI25InterpreterMacroAssemblerEEPT_PKciS3_.exit
  tail call void @_ZN12Disassembler5_hookEPKciP14MacroAssembler(ptr noundef nonnull @.str, i32 noundef 2344, ptr noundef %10) #8
  br label %_ZN12Disassembler4hookI25InterpreterMacroAssemblerEEPT_PKciS3_.exit4

_ZN12Disassembler4hookI25InterpreterMacroAssemblerEEPT_PKciS3_.exit4: ; preds = %_ZN12Disassembler4hookI25InterpreterMacroAssemblerEEPT_PKciS3_.exit, %13
  tail call void @_ZN14MacroAssembler6cmpoopE8RegisterS0_(ptr noundef nonnull align 8 dereferenceable(40) %10, i32 2, i32 0) #8
  %14 = load ptr, ptr @_ZN13TemplateTable5_masmE, align 8
  %15 = load i8, ptr @PrintInterpreter, align 1
  %16 = trunc i8 %15 to i1
  br i1 %16, label %17, label %_ZN12Disassembler4hookI25InterpreterMacroAssemblerEEPT_PKciS3_.exit5

17:                                               ; preds = %_ZN12Disassembler4hookI25InterpreterMacroAssemblerEEPT_PKciS3_.exit4
  tail call void @_ZN12Disassembler5_hookEPKciP14MacroAssembler(ptr noundef nonnull @.str, i32 noundef 2345, ptr noundef %14) #8
  br label %_ZN12Disassembler4hookI25InterpreterMacroAssemblerEEPT_PKciS3_.exit5

_ZN12Disassembler4hookI25InterpreterMacroAssemblerEEPT_PKciS3_.exit5: ; preds = %_ZN12Disassembler4hookI25InterpreterMacroAssemblerEEPT_PKciS3_.exit4, %17
  %18 = icmp ult i32 %0, 6
  br i1 %18, label %switch.lookup, label %19

19:                                               ; preds = %_ZN12Disassembler4hookI25InterpreterMacroAssemblerEEPT_PKciS3_.exit5
  %20 = load ptr, ptr @g_assert_poison, align 8
  store i8 88, ptr %20, align 1
  tail call void @_Z28report_should_not_reach_herePKci(ptr noundef nonnull @.str, i32 noundef 144) #9
  unreachable

switch.lookup:                                    ; preds = %_ZN12Disassembler4hookI25InterpreterMacroAssemblerEEPT_PKciS3_.exit5
  %21 = zext nneg i32 %0 to i64
  %switch.gep = getelementptr inbounds [6 x i32], ptr @switch.table._ZN13TemplateTable7if_acmpENS_9ConditionE, i64 0, i64 %21
  %switch.load = load i32, ptr %switch.gep, align 4
  call void @_ZN9Assembler3jccENS_9ConditionER5Labelb(ptr noundef nonnull align 8 dereferenceable(40) %14, i32 noundef %switch.load, ptr noundef nonnull align 8 dereferenceable(33) %2, i1 noundef zeroext true) #8
  call void @_ZN13TemplateTable6branchEbb(i1 noundef zeroext false, i1 noundef zeroext false)
  %22 = load ptr, ptr @_ZN13TemplateTable5_masmE, align 8
  %23 = load i8, ptr @PrintInterpreter, align 1
  %24 = trunc i8 %23 to i1
  br i1 %24, label %25, label %_ZN12Disassembler4hookI25InterpreterMacroAssemblerEEPT_PKciS3_.exit6

25:                                               ; preds = %switch.lookup
  call void @_ZN12Disassembler5_hookEPKciP14MacroAssembler(ptr noundef nonnull @.str, i32 noundef 2347, ptr noundef %22) #8
  br label %_ZN12Disassembler4hookI25InterpreterMacroAssemblerEEPT_PKciS3_.exit6

_ZN12Disassembler4hookI25InterpreterMacroAssemblerEEPT_PKciS3_.exit6: ; preds = %switch.lookup, %25
  call void @_ZN17AbstractAssembler4bindER5Label(ptr noundef nonnull align 8 dereferenceable(24) %22, ptr noundef nonnull align 8 dereferenceable(33) %2) #8
  %26 = load ptr, ptr @_ZN13TemplateTable5_masmE, align 8
  %27 = load i8, ptr @PrintInterpreter, align 1
  %28 = trunc i8 %27 to i1
  br i1 %28, label %29, label %_ZN12Disassembler4hookI25InterpreterMacroAssemblerEEPT_PKciS3_.exit7

29:                                               ; preds = %_ZN12Disassembler4hookI25InterpreterMacroAssemblerEEPT_PKciS3_.exit6
  call void @_ZN12Disassembler5_hookEPKciP14MacroAssembler(ptr noundef nonnull @.str, i32 noundef 2348, ptr noundef %26) #8
  br label %_ZN12Disassembler4hookI25InterpreterMacroAssemblerEEPT_PKciS3_.exit7

_ZN12Disassembler4hookI25InterpreterMacroAssemblerEEPT_PKciS3_.exit7: ; preds = %_ZN12Disassembler4hookI25InterpreterMacroAssemblerEEPT_PKciS3_.exit6, %29
  call void @_ZN25InterpreterMacroAssembler24profile_not_taken_branchE8Register(ptr noundef nonnull align 8 dereferenceable(48) %26, i32 0) #8
  ret void
}